; Function Attrs: mustprogress uwtable
define noundef range(i32 0, 112) i32 @_ZN7lodepng8compressERSt6vectorIhSaIhEEPKhmRK23LodePNGCompressSettings(ptr noundef nonnull align 8 dereferenceable(24) %0, ptr noundef %1, i64 noundef %2, ptr noundef nonnull align 8 dereferenceable(48) %3) local_unnamed_addr #5 {
  %5 = alloca ptr, align 8
  %6 = alloca i64, align 8
  call void @llvm.lifetime.start.p0(i64 8, ptr nonnull %5) #28
  store ptr null, ptr %5, align 8, !tbaa !7
  call void @llvm.lifetime.start.p0(i64 8, ptr nonnull %6) #28
  store i64 0, ptr %6, align 8, !tbaa !3
  %7 = getelementptr inbounds nuw i8, ptr %3, i64 24
  %8 = load ptr, ptr %7, align 8, !tbaa !599
  %.not.i = icmp eq ptr %8, null
  br i1 %.not.i, label %12, label %9

9:                                                ; preds = %4
  %10 = call noundef i32 %8(ptr noundef nonnull %5, ptr noundef nonnull %6, ptr noundef %1, i64 noundef %2, ptr noundef nonnull %3)
  %.not14.i = icmp eq i32 %10, 0
  %11 = select i1 %.not14.i, i32 0, i32 111
  br label %_ZL13zlib_compressPPhPmPKhmPK23LodePNGCompressSettings.exit

12:                                               ; preds = %4
  %13 = call noundef i32 @_Z21lodepng_zlib_compressPPhPmPKhmPK23LodePNGCompressSettings(ptr noundef nonnull %5, ptr noundef nonnull %6, ptr noundef %1, i64 noundef %2, ptr noundef nonnull %3)
  br label %_ZL13zlib_compressPPhPmPKhmPK23LodePNGCompressSettings.exit

_ZL13zlib_compressPPhPmPKhmPK23LodePNGCompressSettings.exit: ; preds = %9, %12
  %.0.i = phi i32 [ %11, %9 ], [ %13, %12 ]
  %14 = load ptr, ptr %5, align 8, !tbaa !7
  %.not = icmp eq ptr %14, null
  br i1 %.not, label %26, label %15

15:                                               ; preds = %_ZL13zlib_compressPPhPmPKhmPK23LodePNGCompressSettings.exit
  %16 = getelementptr inbounds nuw i8, ptr %0, i64 8
  %17 = load ptr, ptr %16, align 8, !tbaa !7
  %18 = load i64, ptr %6, align 8, !tbaa !3
  %19 = getelementptr inbounds nuw i8, ptr %14, i64 %18
  %20 = load ptr, ptr %0, align 8, !tbaa !7
  %21 = ptrtoint ptr %17 to i64
  %22 = ptrtoint ptr %20 to i64
  %23 = sub i64 %21, %22
  %24 = getelementptr inbounds i8, ptr %20, i64 %23
  call void @_ZNSt6vectorIhSaIhEE15_M_range_insertIPhEEvN9__gnu_cxx17__normal_iteratorIS3_S1_EET_S7_St20forward_iterator_tag(ptr noundef nonnull align 8 dereferenceable(24) %0, ptr %24, ptr noundef nonnull %14, ptr noundef nonnull %19)
  %25 = load ptr, ptr %5, align 8, !tbaa !7
  call void @free(ptr noundef %25) #28
  br label %26

26:                                               ; preds = %15, %_ZL13zlib_compressPPhPmPKhmPK23LodePNGCompressSettings.exit
  call void @llvm.lifetime.end.p0(i64 8, ptr nonnull %6) #28
  call void @llvm.lifetime.end.p0(i64 8, ptr nonnull %5) #28
  ret i32 %.0.i
}